target datalayout = "e-m:e-p270:32:32-p271:32:32-p272:64:64-i64:64-i128:128-f80:128-n8:16:32:64-S128"
target triple = "x86_64-pc-linux-gnu"

%struct.expert_field = type { i32, i32 }

@hf_pfcp_n6_jitter_measurement_dl_periodicity = internal global i32 0, align 4
@hf_pfcp_n6_jitter_measurement_lower_dl_jitter_measurement = internal global i32 0, align 4
@hf_pfcp_n6_jitter_measurement_higher_dl_jitter_measurement = internal global i32 0, align 4
@ei_pfcp_ie_data_not_decoded = internal global %struct.expert_field zeroinitializer, align 4
@dissect_pfcp_n6_jitter_measurement.pfcp_n6_jitter_measurement_flags = internal constant [3 x ptr] [ptr @hf_pfcp_spare_b7_b1, ptr @hf_pfcp_n6_jitter_measurement_flags_b0_dl, ptr null], align 16

; Function Attrs: null_pointer_is_valid sspstrong uwtable
define internal void @dissect_pfcp_n6_jitter_measurement(ptr noundef %0, ptr noundef %1, ptr noundef %2, ptr noundef %3, i16 noundef zeroext %4, i8 noundef zeroext %5, ptr noundef %6) #0 {
  %8 = alloca ptr, align 8
  %9 = alloca ptr, align 8
  %10 = alloca ptr, align 8
  %11 = alloca ptr, align 8
  %12 = alloca i16, align 2
  %13 = alloca i8, align 1
  %14 = alloca ptr, align 8
  %15 = alloca i32, align 4
  %16 = alloca i64, align 8
  store ptr %0, ptr %8, align 8
  store ptr %1, ptr %9, align 8
  store ptr %2, ptr %10, align 8
  store ptr %3, ptr %11, align 8
  store i16 %4, ptr %12, align 2
  store i8 %5, ptr %13, align 1
  store ptr %6, ptr %14, align 8
  call void @llvm.lifetime.start.p0(i64 4, ptr %15) #13
  store i32 0, ptr %15, align 4
  call void @llvm.lifetime.start.p0(i64 8, ptr %16) #13
  %17 = load ptr, ptr %10, align 8
  %18 = load ptr, ptr %8, align 8
  %19 = load i32, ptr %15, align 4
  call void @proto_tree_add_bitmask_list_ret_uint64(ptr noundef %17, ptr noundef %18, i32 noundef %19, i32 noundef 1, ptr noundef @dissect_pfcp_n6_jitter_measurement.pfcp_n6_jitter_measurement_flags, i32 noundef 0, ptr noundef %16)
  %20 = load i32, ptr %15, align 4
  %21 = add i32 %20, 1
  store i32 %21, ptr %15, align 4
  %22 = load i64, ptr %16, align 8
  %23 = and i64 %22, 1
  %24 = icmp ne i64 %23, 0
  br i1 %24, label %25, label %47

25:                                               ; preds = %7
  %26 = load ptr, ptr %10, align 8
  %27 = load i32, ptr @hf_pfcp_n6_jitter_measurement_dl_periodicity, align 4
  %28 = load ptr, ptr %8, align 8
  %29 = load i32, ptr %15, align 4
  %30 = call ptr @proto_tree_add_item(ptr noundef %26, i32 noundef %27, ptr noundef %28, i32 noundef %29, i32 noundef 4, i32 noundef 0)
  %31 = load i32, ptr %15, align 4
  %32 = add i32 %31, 4
  store i32 %32, ptr %15, align 4
  %33 = load ptr, ptr %10, align 8
  %34 = load i32, ptr @hf_pfcp_n6_jitter_measurement_lower_dl_jitter_measurement, align 4
  %35 = load ptr, ptr %8, align 8
  %36 = load i32, ptr %15, align 4
  %37 = call ptr @proto_tree_add_item(ptr noundef %33, i32 noundef %34, ptr noundef %35, i32 noundef %36, i32 noundef 4, i32 noundef 0)
  %38 = load i32, ptr %15, align 4
  %39 = add i32 %38, 4
  store i32 %39, ptr %15, align 4
  %40 = load ptr, ptr %10, align 8
  %41 = load i32, ptr @hf_pfcp_n6_jitter_measurement_higher_dl_jitter_measurement, align 4
  %42 = load ptr, ptr %8, align 8
  %43 = load i32, ptr %15, align 4
  %44 = call ptr @proto_tree_add_item(ptr noundef %40, i32 noundef %41, ptr noundef %42, i32 noundef %43, i32 noundef 4, i32 noundef 0)
  %45 = load i32, ptr %15, align 4
  %46 = add i32 %45, 4
  store i32 %46, ptr %15, align 4
  br label %47

47:                                               ; preds = %25, %7
  %48 = load i32, ptr %15, align 4
  %49 = load i16, ptr %12, align 2
  %50 = zext i16 %49 to i32
  %51 = icmp slt i32 %48, %50
  br i1 %51, label %52, label %58

52:                                               ; preds = %47
  %53 = load ptr, ptr %10, align 8
  %54 = load ptr, ptr %9, align 8
  %55 = load ptr, ptr %8, align 8
  %56 = load i32, ptr %15, align 4
  %57 = call ptr @proto_tree_add_expert(ptr noundef %53, ptr noundef %54, ptr noundef @ei_pfcp_ie_data_not_decoded, ptr noundef %55, i32 noundef %56, i32 noundef -1)
  br label %58

58:                                               ; preds = %52, %47
  call void @llvm.lifetime.end.p0(i64 8, ptr %16) #13
  call void @llvm.lifetime.end.p0(i64 4, ptr %15) #13
  ret void
}