; Function Attrs: null_pointer_is_valid sspstrong uwtable
define internal void @dissect_pfcp_n6_jitter_measurement(ptr noundef %0, ptr noundef %1, ptr noundef %2, ptr readnone captures(none) %3, i16 noundef zeroext %4, i8 zeroext %5, ptr readnone captures(none) %6) #0 {
  %8 = alloca i64, align 8
  call void @llvm.lifetime.start.p0(i64 8, ptr nonnull %8) #15
  call void @proto_tree_add_bitmask_list_ret_uint64(ptr noundef %2, ptr noundef %0, i32 noundef 0, i32 noundef 1, ptr noundef nonnull @dissect_pfcp_n6_jitter_measurement.pfcp_n6_jitter_measurement_flags, i32 noundef 0, ptr noundef nonnull %8)
  %9 = load i64, ptr %8, align 8
  %10 = and i64 %9, 1
  %.not = icmp eq i64 %10, 0
  br i1 %.not, label %18, label %11

11:                                               ; preds = %7
  %12 = load i32, ptr @hf_pfcp_n6_jitter_measurement_dl_periodicity, align 4
  %13 = call ptr @proto_tree_add_item(ptr noundef %2, i32 noundef %12, ptr noundef %0, i32 noundef 1, i32 noundef 4, i32 noundef 0)
  %14 = load i32, ptr @hf_pfcp_n6_jitter_measurement_lower_dl_jitter_measurement, align 4
  %15 = call ptr @proto_tree_add_item(ptr noundef %2, i32 noundef %14, ptr noundef %0, i32 noundef 5, i32 noundef 4, i32 noundef 0)
  %16 = load i32, ptr @hf_pfcp_n6_jitter_measurement_higher_dl_jitter_measurement, align 4
  %17 = call ptr @proto_tree_add_item(ptr noundef %2, i32 noundef %16, ptr noundef %0, i32 noundef 9, i32 noundef 4, i32 noundef 0)
  br label %18

18:                                               ; preds = %11, %7
  %.0 = phi i32 [ 13, %11 ], [ 1, %7 ]
  %19 = zext i16 %4 to i32
  %20 = icmp samesign ult i32 %.0, %19
  br i1 %20, label %21, label %23

21:                                               ; preds = %18
  %22 = call ptr @proto_tree_add_expert(ptr noundef %2, ptr noundef %1, ptr noundef nonnull @ei_pfcp_ie_data_not_decoded, ptr noundef %0, i32 noundef %.0, i32 noundef -1)
  br label %23

23:                                               ; preds = %21, %18
  call void @llvm.lifetime.end.p0(i64 8, ptr nonnull %8) #15
  ret void
}